target datalayout = "e-m:e-p270:32:32-p271:32:32-p272:64:64-i64:64-i128:128-f80:128-n8:16:32:64-S128"
target triple = "x86_64-pc-linux-gnu"

%class.RichParameterList = type { %"class.std::__cxx11::list" }
%"class.std::__cxx11::list" = type { %"class.std::__cxx11::_List_base" }
%"class.std::__cxx11::_List_base" = type { %"struct.std::__cxx11::_List_base<RichParameter *, std::allocator<RichParameter *>>::_List_impl" }
%"struct.std::__cxx11::_List_base<RichParameter *, std::allocator<RichParameter *>>::_List_impl" = type { %"struct.std::__detail::_List_node_header" }
%"struct.std::__detail::_List_node_header" = type { %"struct.std::__detail::_List_node_base", i64 }
%"struct.std::__detail::_List_node_base" = type { ptr, ptr }
%"struct.std::_List_iterator" = type { ptr }
%"struct.std::_List_node" = type { %"struct.std::__detail::_List_node_base", %"struct.__gnu_cxx::__aligned_membuf.19" }
%"struct.__gnu_cxx::__aligned_membuf.19" = type { [8 x i8] }
%"struct.std::__allocated_ptr" = type { ptr, ptr }

; Function Attrs: mustprogress nounwind uwtable
define linkonce_odr noundef i64 @_ZNKSt15__new_allocatorISt10_List_nodeIP13RichParameterEE11_M_max_sizeEv(ptr noundef nonnull align 1 dereferenceable(1) %0) #4 comdat align 2 {
  %2 = alloca ptr, align 8
  store ptr %0, ptr %2, align 8
  ret i64 384307168202282325
}

; Function Attrs: mustprogress nounwind uwtable
define linkonce_odr void @_ZNSt15__new_allocatorISt10_List_nodeIP13RichParameterEE10deallocateEPS3_m(ptr noundef nonnull align 1 dereferenceable(1) %0, ptr noundef %1, i64 noundef %2) #4 comdat align 2 {
  %4 = alloca ptr, align 8
  %5 = alloca ptr, align 8
  %6 = alloca i64, align 8
  store ptr %0, ptr %4, align 8
  store ptr %1, ptr %5, align 8
  store i64 %2, ptr %6, align 8
  %7 = load ptr, ptr %5, align 8
  call void @_ZdlPv(ptr noundef %7) #18
  ret void
}

; Function Attrs: mustprogress nounwind uwtable
define linkonce_odr noundef ptr @_ZN9__gnu_cxx16__aligned_membufIP13RichParameterE7_M_addrEv(ptr noundef nonnull align 8 dereferenceable(8) %0) #4 comdat align 2 {
  %2 = alloca ptr, align 8
  store ptr %0, ptr %2, align 8
  %3 = load ptr, ptr %2, align 8
  %4 = getelementptr inbounds %"struct.__gnu_cxx::__aligned_membuf.19", ptr %3, i32 0, i32 0
  ret ptr %4
}

; Function Attrs: mustprogress uwtable
define linkonce_odr noundef ptr @_ZNSt15__new_allocatorISt10_List_nodeIP13RichParameterEE8allocateEmPKv(ptr noundef nonnull align 1 dereferenceable(1) %0, i64 noundef %1, ptr noundef %2) #5 comdat align 2 {
  %4 = alloca ptr, align 8
  %5 = alloca i64, align 8
  %6 = alloca ptr, align 8
  store ptr %0, ptr %4, align 8
  store i64 %1, ptr %5, align 8
  store ptr %2, ptr %6, align 8
  %7 = load ptr, ptr %4, align 8
  %8 = load i64, ptr %5, align 8
  %9 = call noundef i64 @_ZNKSt15__new_allocatorISt10_List_nodeIP13RichParameterEE11_M_max_sizeEv(ptr noundef nonnull align 1 dereferenceable(1) %7) #3
  %10 = icmp ugt i64 %8, %9
  br i1 %10, label %11, label %16

11:                                               ; preds = %3
  %12 = load i64, ptr %5, align 8
  %13 = icmp ugt i64 %12, 768614336404564650
  br i1 %13, label %14, label %15

14:                                               ; preds = %11
  call void @_ZSt28__throw_bad_array_new_lengthv() #16
  unreachable

15:                                               ; preds = %11
  call void @_ZSt17__throw_bad_allocv() #16
  unreachable

16:                                               ; preds = %3
  %17 = load i64, ptr %5, align 8
  %18 = mul i64 %17, 24
  %19 = call noalias noundef nonnull ptr @_Znwm(i64 noundef %18) #17
  ret ptr %19
}

; Function Attrs: noreturn nounwind uwtable
define linkonce_odr hidden void @__clang_call_terminate(ptr noundef %0) #9 comdat {
  %2 = call ptr @__cxa_begin_catch(ptr %0) #3
  call void @_ZSt9terminatev() #15
  unreachable
}

; Function Attrs: mustprogress uwtable
define linkonce_odr void @_ZNSt16allocator_traitsISaISt10_List_nodeIP13RichParameterEEE10deallocateERS4_PS3_m(ptr noundef nonnull align 1 dereferenceable(1) %0, ptr noundef %1, i64 noundef %2) #5 comdat align 2 {
  %4 = alloca ptr, align 8
  %5 = alloca ptr, align 8
  %6 = alloca i64, align 8
  store ptr %0, ptr %4, align 8
  store ptr %1, ptr %5, align 8
  store i64 %2, ptr %6, align 8
  %7 = load ptr, ptr %4, align 8
  %8 = load ptr, ptr %5, align 8
  %9 = load i64, ptr %6, align 8
  call void @_ZNSt15__new_allocatorISt10_List_nodeIP13RichParameterEE10deallocateEPS3_m(ptr noundef nonnull align 1 dereferenceable(1) %7, ptr noundef %8, i64 noundef %9)
  ret void
}

; Function Attrs: mustprogress nounwind uwtable
define linkonce_odr void @_ZNSt15__new_allocatorISt10_List_nodeIP13RichParameterEE9constructIS2_JRKS2_EEEvPT_DpOT0_(ptr noundef nonnull align 1 dereferenceable(1) %0, ptr noundef %1, ptr noundef nonnull align 8 dereferenceable(8) %2) #4 comdat align 2 {
  %4 = alloca ptr, align 8
  %5 = alloca ptr, align 8
  %6 = alloca ptr, align 8
  store ptr %0, ptr %4, align 8
  store ptr %1, ptr %5, align 8
  store ptr %2, ptr %6, align 8
  %7 = load ptr, ptr %5, align 8
  %8 = load ptr, ptr %6, align 8
  %9 = load ptr, ptr %8, align 8
  store ptr %9, ptr %7, align 8
  ret void
}

; Function Attrs: mustprogress nounwind uwtable
define linkonce_odr noundef ptr @_ZN9__gnu_cxx16__aligned_membufIP13RichParameterE6_M_ptrEv(ptr noundef nonnull align 8 dereferenceable(8) %0) #4 comdat align 2 {
  %2 = alloca ptr, align 8
  store ptr %0, ptr %2, align 8
  %3 = load ptr, ptr %2, align 8
  %4 = call noundef ptr @_ZN9__gnu_cxx16__aligned_membufIP13RichParameterE7_M_addrEv(ptr noundef nonnull align 8 dereferenceable(8) %3) #3
  ret ptr %4
}

; Function Attrs: mustprogress uwtable
define linkonce_odr noundef ptr @_ZNSt16allocator_traitsISaISt10_List_nodeIP13RichParameterEEE8allocateERS4_m(ptr noundef nonnull align 1 dereferenceable(1) %0, i64 noundef %1) #5 comdat align 2 {
  %3 = alloca ptr, align 8
  %4 = alloca i64, align 8
  store ptr %0, ptr %3, align 8
  store i64 %1, ptr %4, align 8
  %5 = load ptr, ptr %3, align 8
  %6 = load i64, ptr %4, align 8
  %7 = call noundef ptr @_ZNSt15__new_allocatorISt10_List_nodeIP13RichParameterEE8allocateEmPKv(ptr noundef nonnull align 1 dereferenceable(1) %5, i64 noundef %6, ptr noundef null)
  ret ptr %7
}

; Function Attrs: mustprogress nounwind uwtable
define linkonce_odr void @_ZNSt15__allocated_ptrISaISt10_List_nodeIP13RichParameterEEED2Ev(ptr noundef nonnull align 8 dereferenceable(16) %0) unnamed_addr #4 comdat align 2 personality ptr @__gxx_personality_v0 {
  %2 = alloca ptr, align 8
  store ptr %0, ptr %2, align 8
  %3 = load ptr, ptr %2, align 8
  %4 = getelementptr inbounds %"struct.std::__allocated_ptr", ptr %3, i32 0, i32 1
  %5 = load ptr, ptr %4, align 8
  %6 = icmp ne ptr %5, null
  br i1 %6, label %7, label %13

7:                                                ; preds = %1
  %8 = getelementptr inbounds %"struct.std::__allocated_ptr", ptr %3, i32 0, i32 0
  %9 = load ptr, ptr %8, align 8
  %10 = getelementptr inbounds %"struct.std::__allocated_ptr", ptr %3, i32 0, i32 1
  %11 = load ptr, ptr %10, align 8
  invoke void @_ZNSt16allocator_traitsISaISt10_List_nodeIP13RichParameterEEE10deallocateERS4_PS3_m(ptr noundef nonnull align 1 dereferenceable(1) %9, ptr noundef %11, i64 noundef 1)
          to label %12 unwind label %14

12:                                               ; preds = %7
  br label %13

13:                                               ; preds = %12, %1
  ret void

14:                                               ; preds = %7
  %15 = landingpad { ptr, i32 }
          catch ptr null
  %16 = extractvalue { ptr, i32 } %15, 0
  call void @__clang_call_terminate(ptr %16) #15
  unreachable
}

; Function Attrs: mustprogress nounwind uwtable
define linkonce_odr noundef nonnull align 8 dereferenceable(16) ptr @_ZNSt15__allocated_ptrISaISt10_List_nodeIP13RichParameterEEEaSEDn(ptr noundef nonnull align 8 dereferenceable(16) %0, ptr %1) #4 comdat align 2 {
  %3 = alloca ptr, align 8
  %4 = alloca ptr, align 8
  store ptr %0, ptr %3, align 8
  store ptr %1, ptr %4, align 8
  %5 = load ptr, ptr %3, align 8
  %6 = getelementptr inbounds %"struct.std::__allocated_ptr", ptr %5, i32 0, i32 1
  store ptr null, ptr %6, align 8
  ret ptr %5
}

; Function Attrs: mustprogress nounwind uwtable
define linkonce_odr void @_ZNSt16allocator_traitsISaISt10_List_nodeIP13RichParameterEEE9constructIS2_JRKS2_EEEvRS4_PT_DpOT0_(ptr noundef nonnull align 1 dereferenceable(1) %0, ptr noundef %1, ptr noundef nonnull align 8 dereferenceable(8) %2) #4 comdat align 2 {
  %4 = alloca ptr, align 8
  %5 = alloca ptr, align 8
  %6 = alloca ptr, align 8
  store ptr %0, ptr %4, align 8
  store ptr %1, ptr %5, align 8
  store ptr %2, ptr %6, align 8
  %7 = load ptr, ptr %4, align 8
  %8 = load ptr, ptr %5, align 8
  %9 = load ptr, ptr %6, align 8
  call void @_ZNSt15__new_allocatorISt10_List_nodeIP13RichParameterEE9constructIS2_JRKS2_EEEvPT_DpOT0_(ptr noundef nonnull align 1 dereferenceable(1) %7, ptr noundef %8, ptr noundef nonnull align 8 dereferenceable(8) %9) #3
  ret void
}

; Function Attrs: mustprogress nounwind uwtable
define linkonce_odr noundef ptr @_ZNSt10_List_nodeIP13RichParameterE9_M_valptrEv(ptr noundef nonnull align 8 dereferenceable(24) %0) #4 comdat align 2 {
  %2 = alloca ptr, align 8
  store ptr %0, ptr %2, align 8
  %3 = load ptr, ptr %2, align 8
  %4 = getelementptr inbounds %"struct.std::_List_node", ptr %3, i32 0, i32 1
  %5 = call noundef ptr @_ZN9__gnu_cxx16__aligned_membufIP13RichParameterE6_M_ptrEv(ptr noundef nonnull align 8 dereferenceable(8) %4) #3
  ret ptr %5
}

; Function Attrs: mustprogress nounwind uwtable
define linkonce_odr void @_ZNSt15__allocated_ptrISaISt10_List_nodeIP13RichParameterEEEC2ERS4_PS3_(ptr noundef nonnull align 8 dereferenceable(16) %0, ptr noundef nonnull align 1 dereferenceable(1) %1, ptr noundef %2) unnamed_addr #4 comdat align 2 {
  %4 = alloca ptr, align 8
  %5 = alloca ptr, align 8
  %6 = alloca ptr, align 8
  store ptr %0, ptr %4, align 8
  store ptr %1, ptr %5, align 8
  store ptr %2, ptr %6, align 8
  %7 = load ptr, ptr %4, align 8
  %8 = getelementptr inbounds %"struct.std::__allocated_ptr", ptr %7, i32 0, i32 0
  %9 = load ptr, ptr %5, align 8
  store ptr %9, ptr %8, align 8
  %10 = getelementptr inbounds %"struct.std::__allocated_ptr", ptr %7, i32 0, i32 1
  %11 = load ptr, ptr %6, align 8
  store ptr %11, ptr %10, align 8
  ret void
}

; Function Attrs: mustprogress nounwind uwtable
define linkonce_odr noundef nonnull align 1 dereferenceable(1) ptr @_ZNSt7__cxx1110_List_baseIP13RichParameterSaIS2_EE21_M_get_Node_allocatorEv(ptr noundef nonnull align 8 dereferenceable(24) %0) #4 comdat align 2 {
  %2 = alloca ptr, align 8
  store ptr %0, ptr %2, align 8
  %3 = load ptr, ptr %2, align 8
  %4 = getelementptr inbounds %"class.std::__cxx11::_List_base", ptr %3, i32 0, i32 0
  ret ptr %4
}

; Function Attrs: mustprogress uwtable
define linkonce_odr noundef ptr @_ZNSt7__cxx1110_List_baseIP13RichParameterSaIS2_EE11_M_get_nodeEv(ptr noundef nonnull align 8 dereferenceable(24) %0) #5 comdat align 2 {
  %2 = alloca ptr, align 8
  store ptr %0, ptr %2, align 8
  %3 = load ptr, ptr %2, align 8
  %4 = getelementptr inbounds %"class.std::__cxx11::_List_base", ptr %3, i32 0, i32 0
  %5 = call noundef ptr @_ZNSt16allocator_traitsISaISt10_List_nodeIP13RichParameterEEE8allocateERS4_m(ptr noundef nonnull align 1 dereferenceable(1) %4, i64 noundef 1)
  ret ptr %5
}

; Function Attrs: mustprogress nounwind uwtable
define linkonce_odr void @_ZNSt7__cxx1110_List_baseIP13RichParameterSaIS2_EE11_M_inc_sizeEm(ptr noundef nonnull align 8 dereferenceable(24) %0, i64 noundef %1) #4 comdat align 2 {
  %3 = alloca ptr, align 8
  %4 = alloca i64, align 8
  store ptr %0, ptr %3, align 8
  store i64 %1, ptr %4, align 8
  %5 = load ptr, ptr %3, align 8
  %6 = load i64, ptr %4, align 8
  %7 = getelementptr inbounds %"class.std::__cxx11::_List_base", ptr %5, i32 0, i32 0
  %8 = getelementptr inbounds %"struct.std::__cxx11::_List_base<RichParameter *, std::allocator<RichParameter *>>::_List_impl", ptr %7, i32 0, i32 0
  %9 = getelementptr inbounds %"struct.std::__detail::_List_node_header", ptr %8, i32 0, i32 1
  %10 = load i64, ptr %9, align 8
  %11 = add i64 %10, %6
  store i64 %11, ptr %9, align 8
  ret void
}

; Function Attrs: mustprogress uwtable
define linkonce_odr noundef ptr @_ZNSt7__cxx114listIP13RichParameterSaIS2_EE14_M_create_nodeIJRKS2_EEEPSt10_List_nodeIS2_EDpOT_(ptr noundef nonnull align 8 dereferenceable(24) %0, ptr noundef nonnull align 8 dereferenceable(8) %1) #5 comdat align 2 {
  %3 = alloca ptr, align 8
  %4 = alloca ptr, align 8
  %5 = alloca ptr, align 8
  %6 = alloca ptr, align 8
  %7 = alloca %"struct.std::__allocated_ptr", align 8
  store ptr %0, ptr %3, align 8
  store ptr %1, ptr %4, align 8
  %8 = load ptr, ptr %3, align 8
  %9 = call noundef ptr @_ZNSt7__cxx1110_List_baseIP13RichParameterSaIS2_EE11_M_get_nodeEv(ptr noundef nonnull align 8 dereferenceable(24) %8)
  store ptr %9, ptr %5, align 8
  %10 = call noundef nonnull align 1 dereferenceable(1) ptr @_ZNSt7__cxx1110_List_baseIP13RichParameterSaIS2_EE21_M_get_Node_allocatorEv(ptr noundef nonnull align 8 dereferenceable(24) %8) #3
  store ptr %10, ptr %6, align 8
  %11 = load ptr, ptr %6, align 8
  %12 = load ptr, ptr %5, align 8
  call void @_ZNSt15__allocated_ptrISaISt10_List_nodeIP13RichParameterEEEC2ERS4_PS3_(ptr noundef nonnull align 8 dereferenceable(16) %7, ptr noundef nonnull align 1 dereferenceable(1) %11, ptr noundef %12) #3
  %13 = load ptr, ptr %6, align 8
  %14 = load ptr, ptr %5, align 8
  %15 = call noundef ptr @_ZNSt10_List_nodeIP13RichParameterE9_M_valptrEv(ptr noundef nonnull align 8 dereferenceable(24) %14)
  %16 = load ptr, ptr %4, align 8
  call void @_ZNSt16allocator_traitsISaISt10_List_nodeIP13RichParameterEEE9constructIS2_JRKS2_EEEvRS4_PT_DpOT0_(ptr noundef nonnull align 1 dereferenceable(1) %13, ptr noundef %15, ptr noundef nonnull align 8 dereferenceable(8) %16) #3
  %17 = call noundef nonnull align 8 dereferenceable(16) ptr @_ZNSt15__allocated_ptrISaISt10_List_nodeIP13RichParameterEEEaSEDn(ptr noundef nonnull align 8 dereferenceable(16) %7, ptr null) #3
  %18 = load ptr, ptr %5, align 8
  call void @_ZNSt15__allocated_ptrISaISt10_List_nodeIP13RichParameterEEED2Ev(ptr noundef nonnull align 8 dereferenceable(16) %7) #3
  ret ptr %18
}

; Function Attrs: mustprogress nounwind uwtable
define linkonce_odr void @_ZNSt14_List_iteratorIP13RichParameterEC2EPNSt8__detail15_List_node_baseE(ptr noundef nonnull align 8 dereferenceable(8) %0, ptr noundef %1) unnamed_addr #4 comdat align 2 {
  %3 = alloca ptr, align 8
  %4 = alloca ptr, align 8
  store ptr %0, ptr %3, align 8
  store ptr %1, ptr %4, align 8
  %5 = load ptr, ptr %3, align 8
  %6 = getelementptr inbounds %"struct.std::_List_iterator", ptr %5, i32 0, i32 0
  %7 = load ptr, ptr %4, align 8
  store ptr %7, ptr %6, align 8
  ret void
}

; Function Attrs: mustprogress uwtable
define linkonce_odr void @_ZNSt7__cxx114listIP13RichParameterSaIS2_EE9_M_insertIJRKS2_EEEvSt14_List_iteratorIS2_EDpOT_(ptr noundef nonnull align 8 dereferenceable(24) %0, ptr %1, ptr noundef nonnull align 8 dereferenceable(8) %2) #5 comdat align 2 {
  %4 = alloca %"struct.std::_List_iterator", align 8
  %5 = alloca ptr, align 8
  %6 = alloca ptr, align 8
  %7 = alloca ptr, align 8
  %8 = getelementptr inbounds %"struct.std::_List_iterator", ptr %4, i32 0, i32 0
  store ptr %1, ptr %8, align 8
  store ptr %0, ptr %5, align 8
  store ptr %2, ptr %6, align 8
  %9 = load ptr, ptr %5, align 8
  %10 = load ptr, ptr %6, align 8
  %11 = call noundef ptr @_ZNSt7__cxx114listIP13RichParameterSaIS2_EE14_M_create_nodeIJRKS2_EEEPSt10_List_nodeIS2_EDpOT_(ptr noundef nonnull align 8 dereferenceable(24) %9, ptr noundef nonnull align 8 dereferenceable(8) %10)
  store ptr %11, ptr %7, align 8
  %12 = load ptr, ptr %7, align 8
  %13 = getelementptr inbounds %"struct.std::_List_iterator", ptr %4, i32 0, i32 0
  %14 = load ptr, ptr %13, align 8
  call void @_ZNSt8__detail15_List_node_base7_M_hookEPS0_(ptr noundef nonnull align 8 dereferenceable(16) %12, ptr noundef %14) #3
  call void @_ZNSt7__cxx1110_List_baseIP13RichParameterSaIS2_EE11_M_inc_sizeEm(ptr noundef nonnull align 8 dereferenceable(24) %9, i64 noundef 1)
  ret void
}

; Function Attrs: mustprogress nounwind uwtable
define linkonce_odr ptr @_ZNSt7__cxx114listIP13RichParameterSaIS2_EE3endEv(ptr noundef nonnull align 8 dereferenceable(24) %0) #4 comdat align 2 {
  %2 = alloca %"struct.std::_List_iterator", align 8
  %3 = alloca ptr, align 8
  store ptr %0, ptr %3, align 8
  %4 = load ptr, ptr %3, align 8
  %5 = getelementptr inbounds %"class.std::__cxx11::_List_base", ptr %4, i32 0, i32 0
  %6 = getelementptr inbounds %"struct.std::__cxx11::_List_base<RichParameter *, std::allocator<RichParameter *>>::_List_impl", ptr %5, i32 0, i32 0
  call void @_ZNSt14_List_iteratorIP13RichParameterEC2EPNSt8__detail15_List_node_baseE(ptr noundef nonnull align 8 dereferenceable(8) %2, ptr noundef %6) #3
  %7 = getelementptr inbounds %"struct.std::_List_iterator", ptr %2, i32 0, i32 0
  %8 = load ptr, ptr %7, align 8
  ret ptr %8
}

; Function Attrs: mustprogress uwtable
define linkonce_odr void @_ZNSt7__cxx114listIP13RichParameterSaIS2_EE9push_backERKS2_(ptr noundef nonnull align 8 dereferenceable(24) %0, ptr noundef nonnull align 8 dereferenceable(8) %1) #5 comdat align 2 {
  %3 = alloca ptr, align 8
  %4 = alloca ptr, align 8
  %5 = alloca %"struct.std::_List_iterator", align 8
  store ptr %0, ptr %3, align 8
  store ptr %1, ptr %4, align 8
  %6 = load ptr, ptr %3, align 8
  %7 = call ptr @_ZNSt7__cxx114listIP13RichParameterSaIS2_EE3endEv(ptr noundef nonnull align 8 dereferenceable(24) %6) #3
  %8 = getelementptr inbounds %"struct.std::_List_iterator", ptr %5, i32 0, i32 0
  store ptr %7, ptr %8, align 8
  %9 = load ptr, ptr %4, align 8
  %10 = getelementptr inbounds %"struct.std::_List_iterator", ptr %5, i32 0, i32 0
  %11 = load ptr, ptr %10, align 8
  call void @_ZNSt7__cxx114listIP13RichParameterSaIS2_EE9_M_insertIJRKS2_EEEvSt14_List_iteratorIS2_EDpOT_(ptr noundef nonnull align 8 dereferenceable(24) %6, ptr %11, ptr noundef nonnull align 8 dereferenceable(8) %9)
  ret void
}

; Function Attrs: mustprogress uwtable
define noundef nonnull align 8 dereferenceable(56) ptr @_ZN17RichParameterList8addParamERK13RichParameter(ptr noundef nonnull align 8 dereferenceable(24) %0, ptr noundef nonnull align 8 dereferenceable(56) %1) #5 align 2 {
  %3 = alloca ptr, align 8
  %4 = alloca ptr, align 8
  %5 = alloca ptr, align 8
  store ptr %0, ptr %3, align 8
  store ptr %1, ptr %4, align 8
  %6 = load ptr, ptr %3, align 8
  %7 = load ptr, ptr %4, align 8
  %8 = load ptr, ptr %7, align 8
  %9 = getelementptr inbounds ptr, ptr %8, i64 3
  %10 = load ptr, ptr %9, align 8
  %11 = call noundef ptr %10(ptr noundef nonnull align 8 dereferenceable(56) %7)
  store ptr %11, ptr %5, align 8
  %12 = getelementptr inbounds %class.RichParameterList, ptr %6, i32 0, i32 0
  call void @_ZNSt7__cxx114listIP13RichParameterSaIS2_EE9push_backERKS2_(ptr noundef nonnull align 8 dereferenceable(24) %12, ptr noundef nonnull align 8 dereferenceable(8) %5)
  %13 = load ptr, ptr %5, align 8
  ret ptr %13
}