; Function Attrs: mustprogress uwtable
define noundef nonnull align 8 dereferenceable(56) ptr @_ZN17RichParameterList8addParamERK13RichParameter(ptr noundef nonnull align 8 dereferenceable(24) %0, ptr noundef nonnull align 8 dereferenceable(56) %1) local_unnamed_addr #9 align 2 personality ptr @__gxx_personality_v0 {
  %3 = load ptr, ptr %1, align 8
  %4 = getelementptr inbounds i8, ptr %3, i64 24
  %5 = load ptr, ptr %4, align 8
  %6 = tail call noundef ptr %5(ptr noundef nonnull align 8 dereferenceable(56) %1)
  %7 = tail call noalias noundef nonnull dereferenceable(24) ptr @_Znwm(i64 noundef 24) #25
  %8 = getelementptr inbounds i8, ptr %7, i64 16
  store ptr %6, ptr %8, align 8
  tail call void @_ZNSt8__detail15_List_node_base7_M_hookEPS0_(ptr noundef nonnull align 8 dereferenceable(16) %7, ptr noundef nonnull %0) #22
  %9 = getelementptr inbounds i8, ptr %0, i64 16
  %10 = load i64, ptr %9, align 8
  %11 = add i64 %10, 1
  store i64 %11, ptr %9, align 8
  ret ptr %6
}